target datalayout = "e-m:e-p270:32:32-p271:32:32-p272:64:64-i64:64-i128:128-f80:128-n8:16:32:64-S128"
target triple = "x86_64-pc-linux-gnu"

%struct.t_blocka = type { i32, ptr, i32, ptr, i32, i32 }
%struct.gmx_ana_indexmap_t = type { i32, ptr, ptr, %struct.t_blocka, ptr, %struct.t_blocka, i8 }

@.str.3 = private unnamed_addr constant [129 x i8] c"generated/home/dtcxzyw/WorkSpace/Projects/compilers/llvm-opt-benchmark/bench/gromacs/gromacs/src/gromacs/selection/indexutil.cpp\00", align 1
@.str.28 = private unnamed_addr constant [9 x i8] c"m->refid\00", align 1
@.str.29 = private unnamed_addr constant [9 x i8] c"m->mapid\00", align 1
@.str.30 = private unnamed_addr constant [9 x i8] c"m->orgid\00", align 1
@.str.31 = private unnamed_addr constant [14 x i8] c"m->mapb.index\00", align 1
@.str.32 = private unnamed_addr constant [11 x i8] c"m->b.index\00", align 1
@.str.33 = private unnamed_addr constant [7 x i8] c"m->b.a\00", align 1

; Function Attrs: inlinehint mustprogress uwtable
define internal void @_ZL15gmx_srenew_implIiEvPKcS1_iRPT_m(ptr noundef %0, ptr noundef %1, i32 noundef %2, ptr noundef nonnull align 8 dereferenceable(8) %3, i64 noundef %4) #5 {
  %6 = alloca ptr, align 8
  %7 = alloca ptr, align 8
  %8 = alloca i32, align 4
  %9 = alloca ptr, align 8
  %10 = alloca i64, align 8
  store ptr %0, ptr %6, align 8, !tbaa !54
  store ptr %1, ptr %7, align 8, !tbaa !54
  store i32 %2, ptr %8, align 4, !tbaa !114
  store ptr %3, ptr %9, align 8, !tbaa !84
  store i64 %4, ptr %10, align 8, !tbaa !19
  %11 = load ptr, ptr %6, align 8, !tbaa !54
  %12 = load ptr, ptr %7, align 8, !tbaa !54
  %13 = load i32, ptr %8, align 4, !tbaa !114
  %14 = load ptr, ptr %9, align 8, !tbaa !84
  %15 = load ptr, ptr %14, align 8, !tbaa !77
  %16 = load i64, ptr %10, align 8, !tbaa !19
  %17 = call noundef ptr @_Z12save_reallocPKcS0_iPvmm(ptr noundef %11, ptr noundef %12, i32 noundef %13, ptr noundef %15, i64 noundef %16, i64 noundef 4)
  %18 = load ptr, ptr %9, align 8, !tbaa !84
  store ptr %17, ptr %18, align 8, !tbaa !77
  ret void
}

; Function Attrs: mustprogress uwtable
define void @_Z24gmx_ana_indexmap_reserveP18gmx_ana_indexmap_tii(ptr noundef %0, i32 noundef %1, i32 noundef %2) #0 {
  %4 = alloca ptr, align 8
  %5 = alloca i32, align 4
  %6 = alloca i32, align 4
  store ptr %0, ptr %4, align 8, !tbaa !476
  store i32 %1, ptr %5, align 4, !tbaa !114
  store i32 %2, ptr %6, align 4, !tbaa !114
  %7 = load ptr, ptr %4, align 8, !tbaa !476
  %8 = getelementptr inbounds nuw %struct.gmx_ana_indexmap_t, ptr %7, i32 0, i32 3
  %9 = getelementptr inbounds nuw %struct.t_blocka, ptr %8, i32 0, i32 4
  %10 = load i32, ptr %9, align 8, !tbaa !484
  %11 = load i32, ptr %5, align 4, !tbaa !114
  %12 = add nsw i32 %11, 1
  %13 = icmp slt i32 %10, %12
  br i1 %13, label %14, label %49

14:                                               ; preds = %3
  %15 = load ptr, ptr %4, align 8, !tbaa !476
  %16 = getelementptr inbounds nuw %struct.gmx_ana_indexmap_t, ptr %15, i32 0, i32 1
  %17 = load i32, ptr %5, align 4, !tbaa !114
  %18 = sext i32 %17 to i64
  call void @_ZL15gmx_srenew_implIiEvPKcS1_iRPT_m(ptr noundef @.str.28, ptr noundef @.str.3, i32 noundef 1130, ptr noundef nonnull align 8 dereferenceable(8) %16, i64 noundef %18)
  %19 = load ptr, ptr %4, align 8, !tbaa !476
  %20 = getelementptr inbounds nuw %struct.gmx_ana_indexmap_t, ptr %19, i32 0, i32 2
  %21 = load i32, ptr %5, align 4, !tbaa !114
  %22 = sext i32 %21 to i64
  call void @_ZL15gmx_srenew_implIiEvPKcS1_iRPT_m(ptr noundef @.str.29, ptr noundef @.str.3, i32 noundef 1131, ptr noundef nonnull align 8 dereferenceable(8) %20, i64 noundef %22)
  %23 = load ptr, ptr %4, align 8, !tbaa !476
  %24 = getelementptr inbounds nuw %struct.gmx_ana_indexmap_t, ptr %23, i32 0, i32 4
  %25 = load i32, ptr %5, align 4, !tbaa !114
  %26 = sext i32 %25 to i64
  call void @_ZL15gmx_srenew_implIiEvPKcS1_iRPT_m(ptr noundef @.str.30, ptr noundef @.str.3, i32 noundef 1132, ptr noundef nonnull align 8 dereferenceable(8) %24, i64 noundef %26)
  %27 = load ptr, ptr %4, align 8, !tbaa !476
  %28 = getelementptr inbounds nuw %struct.gmx_ana_indexmap_t, ptr %27, i32 0, i32 3
  %29 = getelementptr inbounds nuw %struct.t_blocka, ptr %28, i32 0, i32 1
  %30 = load i32, ptr %5, align 4, !tbaa !114
  %31 = add nsw i32 %30, 1
  %32 = sext i32 %31 to i64
  call void @_ZL15gmx_srenew_implIiEvPKcS1_iRPT_m(ptr noundef @.str.31, ptr noundef @.str.3, i32 noundef 1133, ptr noundef nonnull align 8 dereferenceable(8) %29, i64 noundef %32)
  %33 = load ptr, ptr %4, align 8, !tbaa !476
  %34 = getelementptr inbounds nuw %struct.gmx_ana_indexmap_t, ptr %33, i32 0, i32 5
  %35 = getelementptr inbounds nuw %struct.t_blocka, ptr %34, i32 0, i32 1
  %36 = load i32, ptr %5, align 4, !tbaa !114
  %37 = add nsw i32 %36, 1
  %38 = sext i32 %37 to i64
  call void @_ZL15gmx_srenew_implIiEvPKcS1_iRPT_m(ptr noundef @.str.32, ptr noundef @.str.3, i32 noundef 1134, ptr noundef nonnull align 8 dereferenceable(8) %35, i64 noundef %38)
  %39 = load i32, ptr %5, align 4, !tbaa !114
  %40 = add nsw i32 %39, 1
  %41 = load ptr, ptr %4, align 8, !tbaa !476
  %42 = getelementptr inbounds nuw %struct.gmx_ana_indexmap_t, ptr %41, i32 0, i32 3
  %43 = getelementptr inbounds nuw %struct.t_blocka, ptr %42, i32 0, i32 4
  store i32 %40, ptr %43, align 8, !tbaa !484
  %44 = load i32, ptr %5, align 4, !tbaa !114
  %45 = add nsw i32 %44, 1
  %46 = load ptr, ptr %4, align 8, !tbaa !476
  %47 = getelementptr inbounds nuw %struct.gmx_ana_indexmap_t, ptr %46, i32 0, i32 5
  %48 = getelementptr inbounds nuw %struct.t_blocka, ptr %47, i32 0, i32 4
  store i32 %45, ptr %48, align 8, !tbaa !493
  br label %49

49:                                               ; preds = %14, %3
  %50 = load ptr, ptr %4, align 8, !tbaa !476
  %51 = getelementptr inbounds nuw %struct.gmx_ana_indexmap_t, ptr %50, i32 0, i32 5
  %52 = getelementptr inbounds nuw %struct.t_blocka, ptr %51, i32 0, i32 5
  %53 = load i32, ptr %52, align 4, !tbaa !494
  %54 = load i32, ptr %6, align 4, !tbaa !114
  %55 = icmp slt i32 %53, %54
  br i1 %55, label %56, label %66

56:                                               ; preds = %49
  %57 = load ptr, ptr %4, align 8, !tbaa !476
  %58 = getelementptr inbounds nuw %struct.gmx_ana_indexmap_t, ptr %57, i32 0, i32 5
  %59 = getelementptr inbounds nuw %struct.t_blocka, ptr %58, i32 0, i32 3
  %60 = load i32, ptr %6, align 4, !tbaa !114
  %61 = sext i32 %60 to i64
  call void @_ZL15gmx_srenew_implIiEvPKcS1_iRPT_m(ptr noundef @.str.33, ptr noundef @.str.3, i32 noundef 1140, ptr noundef nonnull align 8 dereferenceable(8) %59, i64 noundef %61)
  %62 = load i32, ptr %6, align 4, !tbaa !114
  %63 = load ptr, ptr %4, align 8, !tbaa !476
  %64 = getelementptr inbounds nuw %struct.gmx_ana_indexmap_t, ptr %63, i32 0, i32 5
  %65 = getelementptr inbounds nuw %struct.t_blocka, ptr %64, i32 0, i32 5
  store i32 %62, ptr %65, align 4, !tbaa !494
  br label %66

66:                                               ; preds = %56, %49
  ret void
}