; Function Attrs: mustprogress uwtable
define void @_Z24gmx_ana_indexmap_reserveP18gmx_ana_indexmap_tii(ptr noundef captures(none) %0, i32 noundef %1, i32 noundef %2) local_unnamed_addr #0 {
  %4 = getelementptr inbounds nuw i8, ptr %0, i64 56
  %5 = load i32, ptr %4, align 8, !tbaa !256
  %.not = icmp sgt i32 %5, %1
  br i1 %.not, label %26, label %6

6:                                                ; preds = %3
  %7 = add nsw i32 %1, 1
  %8 = getelementptr inbounds nuw i8, ptr %0, i64 8
  %9 = sext i32 %1 to i64
  %10 = load ptr, ptr %8, align 8, !tbaa !30
  %11 = tail call noundef ptr @_Z12save_reallocPKcS0_iPvmm(ptr noundef nonnull @.str.28, ptr noundef nonnull @.str.3, i32 noundef 1130, ptr noundef %10, i64 noundef range(i64 -2147483648, 2147483648) %9, i64 noundef 4)
  store ptr %11, ptr %8, align 8, !tbaa !30
  %12 = getelementptr inbounds nuw i8, ptr %0, i64 16
  %13 = load ptr, ptr %12, align 8, !tbaa !30
  %14 = tail call noundef ptr @_Z12save_reallocPKcS0_iPvmm(ptr noundef nonnull @.str.29, ptr noundef nonnull @.str.3, i32 noundef 1131, ptr noundef %13, i64 noundef range(i64 -2147483648, 2147483648) %9, i64 noundef 4)
  store ptr %14, ptr %12, align 8, !tbaa !30
  %15 = getelementptr inbounds nuw i8, ptr %0, i64 64
  %16 = load ptr, ptr %15, align 8, !tbaa !30
  %17 = tail call noundef ptr @_Z12save_reallocPKcS0_iPvmm(ptr noundef nonnull @.str.30, ptr noundef nonnull @.str.3, i32 noundef 1132, ptr noundef %16, i64 noundef range(i64 -2147483648, 2147483648) %9, i64 noundef 4)
  store ptr %17, ptr %15, align 8, !tbaa !30
  %18 = getelementptr inbounds nuw i8, ptr %0, i64 32
  %19 = sext i32 %7 to i64
  %20 = load ptr, ptr %18, align 8, !tbaa !30
  %21 = tail call noundef ptr @_Z12save_reallocPKcS0_iPvmm(ptr noundef nonnull @.str.31, ptr noundef nonnull @.str.3, i32 noundef 1133, ptr noundef %20, i64 noundef range(i64 -2147483648, 2147483648) %19, i64 noundef 4)
  store ptr %21, ptr %18, align 8, !tbaa !30
  %22 = getelementptr inbounds nuw i8, ptr %0, i64 80
  %23 = load ptr, ptr %22, align 8, !tbaa !30
  %24 = tail call noundef ptr @_Z12save_reallocPKcS0_iPvmm(ptr noundef nonnull @.str.32, ptr noundef nonnull @.str.3, i32 noundef 1134, ptr noundef %23, i64 noundef range(i64 -2147483648, 2147483648) %19, i64 noundef 4)
  store ptr %24, ptr %22, align 8, !tbaa !30
  store i32 %7, ptr %4, align 8, !tbaa !256
  %25 = getelementptr inbounds nuw i8, ptr %0, i64 104
  store i32 %7, ptr %25, align 8, !tbaa !257
  br label %26

26:                                               ; preds = %6, %3
  %27 = getelementptr inbounds nuw i8, ptr %0, i64 108
  %28 = load i32, ptr %27, align 4, !tbaa !258
  %29 = icmp slt i32 %28, %2
  br i1 %29, label %30, label %35

30:                                               ; preds = %26
  %31 = getelementptr inbounds nuw i8, ptr %0, i64 96
  %32 = sext i32 %2 to i64
  %33 = load ptr, ptr %31, align 8, !tbaa !30
  %34 = tail call noundef ptr @_Z12save_reallocPKcS0_iPvmm(ptr noundef nonnull @.str.33, ptr noundef nonnull @.str.3, i32 noundef 1140, ptr noundef %33, i64 noundef range(i64 -2147483648, 2147483648) %32, i64 noundef 4)
  store ptr %34, ptr %31, align 8, !tbaa !30
  store i32 %2, ptr %27, align 4, !tbaa !258
  br label %35

35:                                               ; preds = %30, %26
  ret void
}